; Function Attrs: mustprogress nounwind uwtable
define noundef zeroext i1 @_ZN5boost6fibers21recursive_timed_mutex15try_lock_until_ERKNSt6chrono10time_pointINS2_3_V212steady_clockENS2_8durationIlSt5ratioILl1ELl1000000000EEEEEE(ptr noundef nonnull align 8 dereferenceable(40) %0, ptr noundef nonnull align 8 dereferenceable(8) %1) local_unnamed_addr #3 align 2 personality ptr @__gxx_personality_v0 {
  %3 = alloca %"class.std::unique_lock", align 8
  %4 = getelementptr inbounds nuw i8, ptr %3, i64 8
  %5 = getelementptr inbounds nuw i8, ptr %0, i64 24
  %6 = getelementptr inbounds nuw i8, ptr %0, i64 8
  %7 = getelementptr inbounds nuw i8, ptr %0, i64 32
  %8 = tail call i64 @_ZNSt6chrono3_V212steady_clock3nowEv() #19
  %.sroa.0.0.copyload.i.i.i16 = load i64, ptr %1, align 8, !tbaa !3
  %9 = icmp slt i64 %.sroa.0.0.copyload.i.i.i16, %8
  br i1 %9, label %._crit_edge, label %.lr.ph

.lr.ph:                                           ; preds = %2, %.backedge
  %.0717 = phi i1 [ %.07.be, %.backedge ], [ undef, %2 ]
  %10 = call noundef ptr @_ZN5boost6fibers7context6activeEv() #19
  call void @llvm.lifetime.start.p0(i64 16, ptr nonnull %3) #19
  store ptr %0, ptr %3, align 8, !tbaa !7
  store i8 0, ptr %4, align 8, !tbaa !11
  call void @_ZN5boost6fibers6detail13spinlock_ttas4lockEv(ptr noundef nonnull align 4 dereferenceable(4) %0) #19
  store i8 1, ptr %4, align 8, !tbaa !11
  %11 = load ptr, ptr %5, align 8, !tbaa !12
  %12 = icmp eq ptr %10, %11
  br i1 %12, label %13, label %16

13:                                               ; preds = %.lr.ph
  %14 = load i64, ptr %7, align 8, !tbaa !25
  %15 = add i64 %14, 1
  br label %.thread.sink.split

16:                                               ; preds = %.lr.ph
  %17 = icmp eq ptr %11, null
  br i1 %17, label %18, label %19

18:                                               ; preds = %16
  store ptr %10, ptr %5, align 8, !tbaa !12
  br label %.thread.sink.split

19:                                               ; preds = %16
  %20 = invoke noundef zeroext i1 @_ZN5boost6fibers10wait_queue22suspend_and_wait_untilERSt11unique_lockINS0_6detail13spinlock_ttasEEPNS0_7contextERKNSt6chrono10time_pointINS9_3_V212steady_clockENS9_8durationIlSt5ratioILl1ELl1000000000EEEEEE(ptr noundef nonnull align 8 dereferenceable(16) %6, ptr noundef nonnull align 8 dereferenceable(9) %3, ptr noundef %10, ptr noundef nonnull align 8 dereferenceable(8) %1)
          to label %21 unwind label %27

21:                                               ; preds = %19
  %.07. = select i1 %20, i1 %.0717, i1 false
  %.pre = load i8, ptr %4, align 8, !tbaa !11, !range !26
  %22 = trunc nuw i8 %.pre to i1
  br i1 %22, label %.thread, label %_ZNSt11unique_lockIN5boost6fibers6detail13spinlock_ttasEED2Ev.exit

.thread.sink.split:                               ; preds = %13, %18
  %.sink = phi i64 [ 1, %18 ], [ %15, %13 ]
  store i64 %.sink, ptr %7, align 8, !tbaa !25
  br label %.thread

.thread:                                          ; preds = %.thread.sink.split, %21
  %switch15 = phi i1 [ %20, %21 ], [ false, %.thread.sink.split ]
  %.213 = phi i1 [ %.07., %21 ], [ true, %.thread.sink.split ]
  %23 = load ptr, ptr %3, align 8, !tbaa !7
  %.not.i.i = icmp eq ptr %23, null
  br i1 %.not.i.i, label %_ZNSt11unique_lockIN5boost6fibers6detail13spinlock_ttasEED2Ev.exit, label %24

24:                                               ; preds = %.thread
  store atomic i32 1, ptr %23 release, align 4
  call void @llvm.lifetime.end.p0(i64 16, ptr nonnull %3) #19
  br i1 %switch15, label %.backedge, label %._crit_edge

_ZNSt11unique_lockIN5boost6fibers6detail13spinlock_ttasEED2Ev.exit: ; preds = %21, %.thread
  %switch14 = phi i1 [ %20, %21 ], [ %switch15, %.thread ]
  %.212 = phi i1 [ %.07., %21 ], [ %.213, %.thread ]
  call void @llvm.lifetime.end.p0(i64 16, ptr nonnull %3) #19
  br i1 %switch14, label %.backedge, label %._crit_edge

.backedge:                                        ; preds = %_ZNSt11unique_lockIN5boost6fibers6detail13spinlock_ttasEED2Ev.exit, %24
  %.07.be = phi i1 [ %.212, %_ZNSt11unique_lockIN5boost6fibers6detail13spinlock_ttasEED2Ev.exit ], [ %.213, %24 ]
  %25 = call i64 @_ZNSt6chrono3_V212steady_clock3nowEv() #19
  %.sroa.0.0.copyload.i.i.i = load i64, ptr %1, align 8, !tbaa !3
  %26 = icmp slt i64 %.sroa.0.0.copyload.i.i.i, %25
  br i1 %26, label %._crit_edge, label %.lr.ph

._crit_edge:                                      ; preds = %.backedge, %_ZNSt11unique_lockIN5boost6fibers6detail13spinlock_ttasEED2Ev.exit, %24, %2
  %.1 = phi i1 [ false, %2 ], [ false, %.backedge ], [ %.212, %_ZNSt11unique_lockIN5boost6fibers6detail13spinlock_ttasEED2Ev.exit ], [ %.213, %24 ]
  ret i1 %.1

27:                                               ; preds = %19
  %28 = landingpad { ptr, i32 }
          catch ptr null
  %29 = extractvalue { ptr, i32 } %28, 0
  call void @__clang_call_terminate(ptr %29) #20
  unreachable
}